target datalayout = "e-m:e-p270:32:32-p271:32:32-p272:64:64-i64:64-i128:128-f80:128-n8:16:32:64-S128"
target triple = "x86_64-pc-linux-gnu"

%"class.pbrt::Medium" = type { %"class.pbrt::TaggedPointer" }
%"class.pbrt::TaggedPointer" = type { i64 }
%"class.pbrt::Point3.8" = type { %"class.pbrt::Tuple3.9" }
%"class.pbrt::Tuple3.9" = type { float, float, float }
%"class.pbrt::LightBase" = type { i32, %"class.pbrt::Transform", %"struct.pbrt::MediumInterface" }
%"class.pbrt::Transform" = type { %"class.pbrt::SquareMatrix.10", %"class.pbrt::SquareMatrix.10" }
%"class.pbrt::SquareMatrix.10" = type { [4 x [4 x float]] }
%"struct.pbrt::MediumInterface" = type { %"class.pbrt::Medium", %"class.pbrt::Medium" }
%"class.pbrt::DistantLight" = type <{ %"class.pbrt::LightBase", ptr, float, %"class.pbrt::Point3.8", float, [4 x i8] }>

; Function Attrs: mustprogress nounwind uwtable
define dso_local void @_ZNK4pbrt12DistantLight6PDF_LeERKNS_3RayEPfS4_(ptr noundef nonnull align 8 dereferenceable(180) %0, ptr noundef nonnull align 8 dereferenceable(40) %1, ptr noundef %2, ptr noundef %3) #6 align 2 {
  %5 = alloca ptr, align 8
  %6 = alloca ptr, align 8
  %7 = alloca ptr, align 8
  %8 = alloca ptr, align 8
  store ptr %0, ptr %5, align 8, !tbaa !169
  store ptr %1, ptr %6, align 8, !tbaa !28
  store ptr %2, ptr %7, align 8, !tbaa !22
  store ptr %3, ptr %8, align 8, !tbaa !22
  %9 = load ptr, ptr %5, align 8
  %10 = getelementptr inbounds nuw %"class.pbrt::DistantLight", ptr %9, i32 0, i32 4
  %11 = load float, ptr %10, align 8, !tbaa !174
  %12 = fmul float 0x400921FB60000000, %11
  %13 = getelementptr inbounds nuw %"class.pbrt::DistantLight", ptr %9, i32 0, i32 4
  %14 = load float, ptr %13, align 8, !tbaa !174
  %15 = fmul float %12, %14
  %16 = fdiv float 1.000000e+00, %15
  %17 = load ptr, ptr %7, align 8, !tbaa !22
  store float %16, ptr %17, align 4, !tbaa !9
  %18 = load ptr, ptr %8, align 8, !tbaa !22
  store float 0.000000e+00, ptr %18, align 4, !tbaa !9
  ret void
}