; Function Attrs: mustprogress nofree norecurse nosync nounwind willreturn memory(argmem: readwrite) uwtable
define dso_local void @_ZNK4pbrt12DistantLight6PDF_LeERKNS_3RayEPfS4_(ptr noundef nonnull readonly align 8 captures(none) dereferenceable(180) %0, ptr noundef nonnull readnone align 8 captures(none) dereferenceable(40) %1, ptr noundef writeonly captures(none) initializes((0, 4)) %2, ptr noundef writeonly captures(none) initializes((0, 4)) %3) local_unnamed_addr #15 align 2 {
  %5 = getelementptr inbounds nuw i8, ptr %0, i64 176
  %6 = load float, ptr %5, align 8, !tbaa !131
  %7 = fmul float %6, 0x400921FB60000000
  %8 = fmul float %6, %7
  %9 = fdiv float 1.000000e+00, %8
  store float %9, ptr %2, align 4, !tbaa !77
  store float 0.000000e+00, ptr %3, align 4, !tbaa !77
  ret void
}